; ModuleID = '5/47.c'
source_filename = "5/47.c"
target datalayout = "e-m:e-p270:32:32-p271:32:32-p272:64:64-i64:64-f80:128-n8:16:32:64-S128"
target triple = "x86_64-pc-linux-gnu"

@.str = private unnamed_addr constant [6 x i8] c"error\00", align 1
@.str.1 = private unnamed_addr constant [3 x i8] c"no\00", align 1
@.str.2 = private unnamed_addr constant [4 x i8] c"yes\00", align 1

; Function Attrs: noinline nounwind uwtable
define dso_local i32 @main() #0 {
  %1 = alloca i32, align 4
  %2 = alloca i32, align 4
  %3 = alloca i32, align 4
  %4 = alloca i32, align 4
  %5 = alloca i32, align 4
  %6 = alloca double, align 8
  %7 = alloca [500 x i8], align 16
  %8 = alloca [500 x i8], align 16
  %9 = alloca [100 x i8], align 16
  %10 = alloca double, align 8
  store i32 0, i32* %1, align 4
  store i32 0, i32* %4, align 4
  store i32 1, i32* %5, align 4
  %11 = getelementptr inbounds [100 x i8], [100 x i8]* %9, i64 0, i64 0
  %12 = call i32 (i8*, ...) bitcast (i32 (...)* @gets to i32 (i8*, ...)*)(i8* %11)
  %13 = getelementptr inbounds [100 x i8], [100 x i8]* %9, i64 0, i64 0
  %14 = call double @atof(i8* %13) #3
  store double %14, double* %6, align 8
  %15 = getelementptr inbounds [500 x i8], [500 x i8]* %7, i64 0, i64 0
  %16 = call i32 (i8*, ...) bitcast (i32 (...)* @gets to i32 (i8*, ...)*)(i8* %15)
  %17 = getelementptr inbounds [500 x i8], [500 x i8]* %8, i64 0, i64 0
  %18 = call i32 (i8*, ...) bitcast (i32 (...)* @gets to i32 (i8*, ...)*)(i8* %17)
  store i32 0, i32* %2, align 4
  br label %19

19:                                               ; preds = %98, %0
  %20 = load i32, i32* %2, align 4
  %21 = sext i32 %20 to i64
  %22 = getelementptr inbounds [500 x i8], [500 x i8]* %7, i64 0, i64 0
  %23 = call i64 @strlen(i8* %22) #3
  %24 = icmp ult i64 %21, %23
  br i1 %24, label %25, label %101

25:                                               ; preds = %19
  %26 = load i32, i32* %2, align 4
  %27 = sext i32 %26 to i64
  %28 = getelementptr inbounds [500 x i8], [500 x i8]* %7, i64 0, i64 %27
  %29 = load i8, i8* %28, align 1
  %30 = sext i8 %29 to i32
  %31 = icmp ne i32 %30, 65
  br i1 %31, label %32, label %53

32:                                               ; preds = %25
  %33 = load i32, i32* %2, align 4
  %34 = sext i32 %33 to i64
  %35 = getelementptr inbounds [500 x i8], [500 x i8]* %7, i64 0, i64 %34
  %36 = load i8, i8* %35, align 1
  %37 = sext i8 %36 to i32
  %38 = icmp ne i32 %37, 84
  br i1 %38, label %39, label %53

39:                                               ; preds = %32
  %40 = load i32, i32* %2, align 4
  %41 = sext i32 %40 to i64
  %42 = getelementptr inbounds [500 x i8], [500 x i8]* %7, i64 0, i64 %41
  %43 = load i8, i8* %42, align 1
  %44 = sext i8 %43 to i32
  %45 = icmp ne i32 %44, 67
  br i1 %45, label %46, label %53

46:                                               ; preds = %39
  %47 = load i32, i32* %2, align 4
  %48 = sext i32 %47 to i64
  %49 = getelementptr inbounds [500 x i8], [500 x i8]* %7, i64 0, i64 %48
  %50 = load i8, i8* %49, align 1
  %51 = sext i8 %50 to i32
  %52 = icmp ne i32 %51, 71
  br i1 %52, label %81, label %53

53:                                               ; preds = %46, %39, %32, %25
  %54 = load i32, i32* %2, align 4
  %55 = sext i32 %54 to i64
  %56 = getelementptr inbounds [500 x i8], [500 x i8]* %8, i64 0, i64 %55
  %57 = load i8, i8* %56, align 1
  %58 = sext i8 %57 to i32
  %59 = icmp ne i32 %58, 65
  br i1 %59, label %60, label %82

60:                                               ; preds = %53
  %61 = load i32, i32* %2, align 4
  %62 = sext i32 %61 to i64
  %63 = getelementptr inbounds [500 x i8], [500 x i8]* %8, i64 0, i64 %62
  %64 = load i8, i8* %63, align 1
  %65 = sext i8 %64 to i32
  %66 = icmp ne i32 %65, 84
  br i1 %66, label %67, label %82

67:                                               ; preds = %60
  %68 = load i32, i32* %2, align 4
  %69 = sext i32 %68 to i64
  %70 = getelementptr inbounds [500 x i8], [500 x i8]* %8, i64 0, i64 %69
  %71 = load i8, i8* %70, align 1
  %72 = sext i8 %71 to i32
  %73 = icmp ne i32 %72, 67
  br i1 %73, label %74, label %82

74:                                               ; preds = %67
  %75 = load i32, i32* %2, align 4
  %76 = sext i32 %75 to i64
  %77 = getelementptr inbounds [500 x i8], [500 x i8]* %8, i64 0, i64 %76
  %78 = load i8, i8* %77, align 1
  %79 = sext i8 %78 to i32
  %80 = icmp ne i32 %79, 71
  br i1 %80, label %81, label %82

81:                                               ; preds = %74, %46
  store i32 0, i32* %5, align 4
  br label %82

82:                                               ; preds = %81, %74, %67, %60, %53
  %83 = load i32, i32* %2, align 4
  %84 = sext i32 %83 to i64
  %85 = getelementptr inbounds [500 x i8], [500 x i8]* %7, i64 0, i64 %84
  %86 = load i8, i8* %85, align 1
  %87 = sext i8 %86 to i32
  %88 = load i32, i32* %2, align 4
  %89 = sext i32 %88 to i64
  %90 = getelementptr inbounds [500 x i8], [500 x i8]* %8, i64 0, i64 %89
  %91 = load i8, i8* %90, align 1
  %92 = sext i8 %91 to i32
  %93 = icmp eq i32 %87, %92
  br i1 %93, label %94, label %97

94:                                               ; preds = %82
  %95 = load i32, i32* %4, align 4
  %96 = add nsw i32 %95, 1
  store i32 %96, i32* %4, align 4
  br label %97

97:                                               ; preds = %94, %82
  br label %98

98:                                               ; preds = %97
  %99 = load i32, i32* %2, align 4
  %100 = add nsw i32 %99, 1
  store i32 %100, i32* %2, align 4
  br label %19

101:                                              ; preds = %19
  %102 = load i32, i32* %4, align 4
  %103 = sitofp i32 %102 to double
  %104 = fmul double 1.000000e+00, %103
  %105 = getelementptr inbounds [500 x i8], [500 x i8]* %7, i64 0, i64 0
  %106 = call i64 @strlen(i8* %105) #3
  %107 = uitofp i64 %106 to double
  %108 = fdiv double %104, %107
  store double %108, double* %10, align 8
  %109 = getelementptr inbounds [500 x i8], [500 x i8]* %7, i64 0, i64 0
  %110 = call i64 @strlen(i8* %109) #3
  %111 = getelementptr inbounds [500 x i8], [500 x i8]* %8, i64 0, i64 0
  %112 = call i64 @strlen(i8* %111) #3
  %113 = icmp ne i64 %110, %112
  br i1 %113, label %117, label %114

114:                                              ; preds = %101
  %115 = load i32, i32* %5, align 4
  %116 = icmp eq i32 %115, 0
  br i1 %116, label %117, label %119

117:                                              ; preds = %114, %101
  %118 = call i32 (i8*, ...) @printf(i8* getelementptr inbounds ([6 x i8], [6 x i8]* @.str, i64 0, i64 0))
  br label %133

119:                                              ; preds = %114
  %120 = load double, double* %10, align 8
  %121 = load double, double* %6, align 8
  %122 = fcmp ole double %120, %121
  br i1 %122, label %123, label %125

123:                                              ; preds = %119
  %124 = call i32 (i8*, ...) @printf(i8* getelementptr inbounds ([3 x i8], [3 x i8]* @.str.1, i64 0, i64 0))
  br label %132

125:                                              ; preds = %119
  %126 = load double, double* %10, align 8
  %127 = load double, double* %6, align 8
  %128 = fcmp ogt double %126, %127
  br i1 %128, label %129, label %131

129:                                              ; preds = %125
  %130 = call i32 (i8*, ...) @printf(i8* getelementptr inbounds ([4 x i8], [4 x i8]* @.str.2, i64 0, i64 0))
  br label %131

131:                                              ; preds = %129, %125
  br label %132

132:                                              ; preds = %131, %123
  br label %133

133:                                              ; preds = %132, %117
  ret i32 0
}

declare dso_local i32 @gets(...) #1

; Function Attrs: nounwind readonly
declare dso_local double @atof(i8*) #2

; Function Attrs: nounwind readonly
declare dso_local i64 @strlen(i8*) #2

declare dso_local i32 @printf(i8*, ...) #1


!llvm.module.flags = !{!0}
!llvm.ident = !{!1}

!0 = !{i32 1, !"wchar_size", i32 4}
!1 = !{!"clang version 10.0.0-4ubuntu1 "}
